BL51 BANKED LINKER/LOCATER V6.22                                                        10/17/2019  22:24:51  PAGE 1


BL51 BANKED LINKER/LOCATER V6.22, INVOKED BY:
E:\KEIL_V5\C51\BIN\BL51.EXE .\Objects\STARTUP.obj, .\Objects\main.obj TO .\Objects\Ã∞≥‘…ﬂ PRINT (.\Listings\Ã∞≥‘…ﬂ.m51) 
>> RAMSIZE (256)


MEMORY MODEL: LARGE


INPUT MODULES INCLUDED:
  .\Objects\STARTUP.obj (?C_STARTUP)
  .\Objects\main.obj (MAIN)
  E:\KEIL_V5\C51\LIB\C51L.LIB (?C_INIT)
  E:\KEIL_V5\C51\LIB\C51L.LIB (?C?COPY)
  E:\KEIL_V5\C51\LIB\C51L.LIB (?C?UIDIV)


LINK MAP OF MODULE:  .\Objects\Ã∞≥‘…ﬂ (?C_STARTUP)


            TYPE    BASE      LENGTH    RELOCATION   SEGMENT NAME
            -----------------------------------------------------

            * * * * * * *   D A T A   M E M O R Y   * * * * * * *
            REG     0000H     0008H     ABSOLUTE     "REG BANK 0"
                    0008H     0018H                  *** GAP ***
            BIT     0020H.0   0001H.0   UNIT         ?BI?MAIN
            IDATA   0021H     0001H     UNIT         ?STACK

            * * * * * * *  X D A T A   M E M O R Y  * * * * * * *
            XDATA   0000H     00A6H     UNIT         ?XD?MAIN
            XDATA   00A6H     0001H     UNIT         _XDATA_GROUP_

            * * * * * * *   C O D E   M E M O R Y   * * * * * * *
            CODE    0000H     0003H     ABSOLUTE     
                    0003H     0008H                  *** GAP ***
            CODE    000BH     0003H     ABSOLUTE     
            CODE    000EH     03DFH     UNIT         ?PR?MAIN?MAIN
            CODE    03EDH     0191H     UNIT         ?CO?MAIN
            CODE    057EH     014BH     UNIT         ?C?LIB_CODE
            CODE    06C9H     00EFH     UNIT         ?C_INITSEG
            CODE    07B8H     00D4H     UNIT         ?PR?KEYSCAN?MAIN
            CODE    088CH     008CH     UNIT         ?C_C51STARTUP
            CODE    0918H     0058H     UNIT         ?PR?LEDSCAN?MAIN
            CODE    0970H     0044H     UNIT         ?PR?INTERRUPTTIMER0?MAIN



OVERLAY MAP OF MODULE:   .\Objects\Ã∞≥‘…ﬂ (?C_STARTUP)


SEGMENT                            XDATA_GROUP
  +--> CALLED SEGMENT            START    LENGTH
------------------------------------------------
?C_C51STARTUP                    -----    -----
  +--> ?PR?MAIN?MAIN
  +--> ?C_INITSEG

?PR?MAIN?MAIN                    00A6H    0001H
BL51 BANKED LINKER/LOCATER V6.22                                                      10/17/2019  22:24:51  PAGE 2


  +--> ?CO?MAIN

*** NEW ROOT ***************************************************

?PR?INTERRUPTTIMER0?MAIN         -----    -----
  +--> ?PR?LEDSCAN?MAIN
  +--> ?PR?KEYSCAN?MAIN



SYMBOL TABLE OF MODULE:  .\Objects\Ã∞≥‘…ﬂ (?C_STARTUP)

  VALUE           TYPE          NAME
  ----------------------------------

  -------         MODULE        ?C_STARTUP
  C:088CH         SEGMENT       ?C_C51STARTUP
  I:0021H         SEGMENT       ?STACK
  C:0000H         PUBLIC        ?C_STARTUP
  D:00E0H         SYMBOL        ACC
  D:00F0H         SYMBOL        B
  D:0083H         SYMBOL        DPH
  D:0082H         SYMBOL        DPL
  N:0000H         SYMBOL        IBPSTACK
  N:0100H         SYMBOL        IBPSTACKTOP
  N:0080H         SYMBOL        IDATALEN
  C:088FH         SYMBOL        IDATALOOP
  N:0000H         SYMBOL        PBPSTACK
  N:0100H         SYMBOL        PBPSTACKTOP
  N:0000H         SYMBOL        PDATALEN
  N:0000H         SYMBOL        PDATASTART
  N:0000H         SYMBOL        PPAGE
  N:0000H         SYMBOL        PPAGEENABLE
  D:00A0H         SYMBOL        PPAGE_SFR
  D:0081H         SYMBOL        SP
  C:088CH         SYMBOL        STARTUP1
  N:0000H         SYMBOL        XBPSTACK
  N:0000H         SYMBOL        XBPSTACKTOP
  N:0000H         SYMBOL        XDATALEN
  N:0000H         SYMBOL        XDATASTART
  C:0000H         LINE#         126
  C:088CH         LINE#         133
  C:088EH         LINE#         134
  C:088FH         LINE#         135
  C:0890H         LINE#         136
  C:0892H         LINE#         185
  C:0895H         LINE#         196
  -------         ENDMOD        ?C_STARTUP

  -------         MODULE        MAIN
  C:0000H         SYMBOL        _ICE_DUMMY_
  D:0080H         PUBLIC        P0
  D:0090H         PUBLIC        P1
  D:00A0H         PUBLIC        P2
  D:00B0H         PUBLIC        P3
  B:00A8H.7       PUBLIC        EA
  C:0970H         PUBLIC        InterruptTimer0
BL51 BANKED LINKER/LOCATER V6.22                                                      10/17/2019  22:24:51  PAGE 3


  X:0007H         PUBLIC        Food
  X:0009H         PUBLIC        Tail
  X:000AH         PUBLIC        RefreshFrequency
  D:00A8H         PUBLIC        IE
  X:000BH         PUBLIC        LoseIndex
  C:03EDH         PUBLIC        WinPicture
  B:0020H.0       PUBLIC        Lose
  X:000CH         PUBLIC        toward
  X:0014H         PUBLIC        NowPicture
  D:00B8H         PUBLIC        IP
  X:001CH         PUBLIC        LedBuff
  C:0918H         PUBLIC        LedScan
  X:001EH         PUBLIC        score
  X:0020H         PUBLIC        LastTail
  C:000EH         PUBLIC        main
  X:0022H         PUBLIC        NowToward
  X:0023H         PUBLIC        WinIndex
  B:0020H.1       PUBLIC        KeyRight
  B:0020H.2       PUBLIC        Win
  X:0024H         PUBLIC        body
  B:0020H.3       PUBLIC        start
  C:07B8H         PUBLIC        KeyScan
  D:0098H         PUBLIC        SCON
  D:0089H         PUBLIC        TMOD
  D:0088H         PUBLIC        TCON
  B:0020H.4       PUBLIC        KeyLeft
  B:0020H.5       PUBLIC        KeyStart
  X:00A4H         PUBLIC        LedCnt
  B:00A0H.7       PUBLIC        KEYTOWARD
  B:0020H.6       PUBLIC        KeyDown
  C:056DH         PUBLIC        LedNum
  B:00A8H.1       PUBLIC        ET0
  D:008CH         PUBLIC        TH0
  D:008DH         PUBLIC        TH1
  B:0090H.3       PUBLIC        ADDR3
  D:008AH         PUBLIC        TL0
  D:008BH         PUBLIC        TL1
  B:00A0H.3       PUBLIC        KEY_OUT_1
  B:00A0H.2       PUBLIC        KEY_OUT_2
  B:00A0H.1       PUBLIC        KEY_OUT_3
  B:0088H.4       PUBLIC        TR0
  B:00A0H.0       PUBLIC        KEY_OUT_4
  B:0088H.6       PUBLIC        TR1
  D:00C8H         PUBLIC        T2CON
  B:0090H.4       PUBLIC        ENLED
  B:0020H.7       PUBLIC        KeyUp
  C:04ADH         PUBLIC        LosePicture
  B:00A0H.6       PUBLIC        KEYSTART
  D:00D0H         PUBLIC        PSW
  -------         PROC          MAIN
  -------         DO            
  X:00A6H         SYMBOL        ttt
  -------         ENDDO         
  C:000EH         LINE#         122
  C:000EH         LINE#         123
  C:000EH         LINE#         124
  C:0013H         LINE#         125
BL51 BANKED LINKER/LOCATER V6.22                                                      10/17/2019  22:24:51  PAGE 4


  C:0015H         LINE#         126
  C:0017H         LINE#         128
  C:001AH         LINE#         129
  C:001DH         LINE#         130
  C:0020H         LINE#         131
  C:0022H         LINE#         132
  C:0024H         LINE#         133
  C:0026H         LINE#         135
  C:0026H         LINE#         136
  C:0026H         LINE#         137
  C:003CH         LINE#         138
  C:003CH         LINE#         140
  C:0040H         LINE#         141
  C:0043H         LINE#         142
  C:0043H         LINE#         143
  C:0053H         LINE#         144
  C:0053H         LINE#         145
  C:0082H         LINE#         146
  C:008AH         LINE#         147
  C:0090H         LINE#         148
  C:0096H         LINE#         149
  C:0098H         LINE#         150
  C:009BH         LINE#         151
  C:009BH         LINE#         152
  C:00ACH         LINE#         153
  C:00ACH         LINE#         154
  C:00DBH         LINE#         155
  C:00E3H         LINE#         156
  C:00E9H         LINE#         157
  C:00F2H         LINE#         158
  C:00F5H         LINE#         160
  C:00F5H         LINE#         161
  C:0114H         LINE#         163
  C:0158H         LINE#         166
  C:016CH         LINE#         167
  C:016CH         LINE#         168
  C:0199H         LINE#         169
  C:01A1H         LINE#         171
  C:01C3H         LINE#         172
  C:01D5H         LINE#         173
  C:01DFH         LINE#         174
  C:01E8H         LINE#         175
  C:01F2H         LINE#         176
  C:01FBH         LINE#         179
  C:0219H         LINE#         180
  C:0219H         LINE#         182
  C:023CH         LINE#         183
  C:0281H         LINE#         185
  C:028FH         LINE#         186
  C:029BH         LINE#         187
  C:029BH         LINE#         188
  C:029DH         LINE#         189
  C:029DH         LINE#         192
  C:029DH         LINE#         193
  C:02A5H         LINE#         194
  C:02ABH         LINE#         195
  C:02DBH         LINE#         197
BL51 BANKED LINKER/LOCATER V6.22                                                      10/17/2019  22:24:51  PAGE 5


  C:02FBH         LINE#         199
  C:031BH         LINE#         201
  C:031BH         LINE#         203
  C:0339H         LINE#         204
  C:0339H         LINE#         205
  C:0366H         LINE#         206
  C:0366H         LINE#         207
  C:0368H         LINE#         208
  C:036FH         LINE#         209
  C:036FH         LINE#         210
  C:0377H         LINE#         218
  C:03A6H         LINE#         221
  C:03C8H         LINE#         222
  C:03EAH         LINE#         223
  C:03EAH         LINE#         224
  C:03EAH         LINE#         225
  -------         ENDPROC       MAIN
  -------         PROC          INTERRUPTTIMER0
  C:0970H         LINE#         229
  C:098DH         LINE#         231
  C:0990H         LINE#         232
  C:0993H         LINE#         233
  C:0996H         LINE#         234
  C:0999H         LINE#         235
  -------         ENDPROC       INTERRUPTTIMER0
  -------         PROC          LEDSCAN
  -------         DO            
  X:0000H         SYMBOL        index
  -------         ENDDO         
  C:0918H         LINE#         236
  C:0918H         LINE#         237
  C:0918H         LINE#         239
  C:0926H         LINE#         240
  C:092CH         LINE#         241
  C:0932H         LINE#         242
  C:093CH         LINE#         243
  C:093CH         LINE#         244
  C:093EH         LINE#         247
  C:0941H         LINE#         248
  C:094AH         LINE#         249
  C:0952H         LINE#         251
  C:0954H         LINE#         253
  C:0954H         LINE#         254
  C:0956H         LINE#         257
  C:0959H         LINE#         258
  C:0962H         LINE#         259
  C:096FH         LINE#         260
  C:096FH         LINE#         261
  -------         ENDPROC       LEDSCAN
  -------         PROC          KEYSCAN
  -------         DO            
  X:0001H         SYMBOL        KeyIndex
  X:0002H         SYMBOL        KeyUpBuf
  X:0003H         SYMBOL        KeyDownBuf
  X:0004H         SYMBOL        KeyLeftBuf
  X:0005H         SYMBOL        KeyRightBuf
  X:0006H         SYMBOL        KeyStartBuf
BL51 BANKED LINKER/LOCATER V6.22                                                      10/17/2019  22:24:51  PAGE 6


  -------         ENDDO         
  C:07B8H         LINE#         264
  C:07B8H         LINE#         265
  C:07B8H         LINE#         275
  C:07C9H         LINE#         276
  C:07C9H         LINE#         277
  C:07C9H         LINE#         278
  C:07CBH         LINE#         279
  C:07D8H         LINE#         280
  C:07DAH         LINE#         281
  C:07DAH         LINE#         282
  C:07DCH         LINE#         283
  C:07DCH         LINE#         284
  C:07DEH         LINE#         285
  C:07EBH         LINE#         286
  C:07EDH         LINE#         287
  C:07EDH         LINE#         288
  C:07EFH         LINE#         289
  C:07EFH         LINE#         290
  C:07F1H         LINE#         291
  C:07FEH         LINE#         292
  C:0800H         LINE#         293
  C:0800H         LINE#         294
  C:0802H         LINE#         295
  C:0802H         LINE#         296
  C:0804H         LINE#         297
  C:0811H         LINE#         298
  C:0813H         LINE#         299
  C:0819H         LINE#         300
  C:081BH         LINE#         301
  C:081BH         LINE#         302
  C:081DH         LINE#         303
  C:082AH         LINE#         304
  C:082CH         LINE#         305
  C:0831H         LINE#         306
  C:0831H         LINE#         307
  C:0831H         LINE#         310
  C:083FH         LINE#         311
  C:083FH         LINE#         313
  C:0841H         LINE#         314
  C:0842H         LINE#         315
  C:084EH         LINE#         316
  C:084EH         LINE#         317
  C:0851H         LINE#         318
  C:0852H         LINE#         319
  C:0860H         LINE#         320
  C:0860H         LINE#         321
  C:0863H         LINE#         322
  C:0864H         LINE#         323
  C:0872H         LINE#         324
  C:0872H         LINE#         325
  C:0875H         LINE#         326
  C:0876H         LINE#         327
  C:087DH         LINE#         328
  C:087DH         LINE#         329
  C:087FH         LINE#         330
  C:0880H         LINE#         331
BL51 BANKED LINKER/LOCATER V6.22                                                      10/17/2019  22:24:51  PAGE 7


  C:0887H         LINE#         332
  C:0887H         LINE#         333
  C:0889H         LINE#         334
  C:088BH         LINE#         335
  C:088BH         LINE#         336
  -------         ENDPROC       KEYSCAN
  -------         ENDMOD        MAIN

  -------         MODULE        ?C?COPY
  C:064EH         PUBLIC        ?C?COPY
  -------         ENDMOD        ?C?COPY

  -------         MODULE        ?C?UIDIV
  C:0674H         PUBLIC        ?C?UIDIV
  -------         ENDMOD        ?C?UIDIV

Program Size: data=10.0 xdata=167 code=2476
LINK/LOCATE RUN COMPLETE.  0 WARNING(S),  0 ERROR(S)
